target datalayout = "e-m:e-p270:32:32-p271:32:32-p272:64:64-i64:64-i128:128-f80:128-n8:16:32:64-S128"
target triple = "x86_64-pc-linux-gnu"

%"class.cv::Size_" = type { i32, i32 }
%"class.cv::Vec.1" = type { %"class.cv::Matx.2" }
%"class.cv::Matx.2" = type { [3 x i8] }

; Function Attrs: mustprogress nounwind uwtable
define internal void @_ZN2cvL9copyMask_INS_3VecIhLi3EEEEEvPKhmS4_mPhmNS_5Size_IiEE(ptr noundef %0, i64 noundef %1, ptr noundef %2, i64 noundef %3, ptr noundef %4, i64 noundef %5, i64 %6) #4 {
  %8 = alloca %"class.cv::Size_", align 4
  %9 = alloca ptr, align 8
  %10 = alloca i64, align 8
  %11 = alloca ptr, align 8
  %12 = alloca i64, align 8
  %13 = alloca ptr, align 8
  %14 = alloca i64, align 8
  %15 = alloca ptr, align 8
  %16 = alloca ptr, align 8
  %17 = alloca i32, align 4
  store i64 %6, ptr %8, align 4
  store ptr %0, ptr %9, align 8
  store i64 %1, ptr %10, align 8
  store ptr %2, ptr %11, align 8
  store i64 %3, ptr %12, align 8
  store ptr %4, ptr %13, align 8
  store i64 %5, ptr %14, align 8
  br label %18

18:                                               ; preds = %52, %7
  %19 = getelementptr inbounds %"class.cv::Size_", ptr %8, i32 0, i32 1
  %20 = load i32, ptr %19, align 4
  %21 = add nsw i32 %20, -1
  store i32 %21, ptr %19, align 4
  %22 = icmp ne i32 %20, 0
  br i1 %22, label %23, label %62

23:                                               ; preds = %18
  %24 = load ptr, ptr %9, align 8
  store ptr %24, ptr %15, align 8
  %25 = load ptr, ptr %13, align 8
  store ptr %25, ptr %16, align 8
  store i32 0, ptr %17, align 4
  br label %26

26:                                               ; preds = %48, %23
  %27 = load i32, ptr %17, align 4
  %28 = getelementptr inbounds %"class.cv::Size_", ptr %8, i32 0, i32 0
  %29 = load i32, ptr %28, align 4
  %30 = icmp slt i32 %27, %29
  br i1 %30, label %31, label %51

31:                                               ; preds = %26
  %32 = load ptr, ptr %11, align 8
  %33 = load i32, ptr %17, align 4
  %34 = sext i32 %33 to i64
  %35 = getelementptr inbounds i8, ptr %32, i64 %34
  %36 = load i8, ptr %35, align 1
  %37 = icmp ne i8 %36, 0
  br i1 %37, label %38, label %47

38:                                               ; preds = %31
  %39 = load ptr, ptr %15, align 8
  %40 = load i32, ptr %17, align 4
  %41 = sext i32 %40 to i64
  %42 = getelementptr inbounds %"class.cv::Vec.1", ptr %39, i64 %41
  %43 = load ptr, ptr %16, align 8
  %44 = load i32, ptr %17, align 4
  %45 = sext i32 %44 to i64
  %46 = getelementptr inbounds %"class.cv::Vec.1", ptr %43, i64 %45
  call void @llvm.memcpy.p0.p0.i64(ptr align 1 %46, ptr align 1 %42, i64 3, i1 false)
  br label %47

47:                                               ; preds = %38, %31
  br label %48

48:                                               ; preds = %47
  %49 = load i32, ptr %17, align 4
  %50 = add nsw i32 %49, 1
  store i32 %50, ptr %17, align 4
  br label %26, !llvm.loop !62

51:                                               ; preds = %26
  br label %52

52:                                               ; preds = %51
  %53 = load i64, ptr %12, align 8
  %54 = load ptr, ptr %11, align 8
  %55 = getelementptr inbounds i8, ptr %54, i64 %53
  store ptr %55, ptr %11, align 8
  %56 = load i64, ptr %10, align 8
  %57 = load ptr, ptr %9, align 8
  %58 = getelementptr inbounds i8, ptr %57, i64 %56
  store ptr %58, ptr %9, align 8
  %59 = load i64, ptr %14, align 8
  %60 = load ptr, ptr %13, align 8
  %61 = getelementptr inbounds i8, ptr %60, i64 %59
  store ptr %61, ptr %13, align 8
  br label %18, !llvm.loop !63

62:                                               ; preds = %18
  ret void
}

; Function Attrs: mustprogress uwtable
define internal void @_ZN2cvL12copyMask8uC3EPKhmS1_mPhmNS_5Size_IiEEPv(ptr noundef %0, i64 noundef %1, ptr noundef %2, i64 noundef %3, ptr noundef %4, i64 noundef %5, i64 %6, ptr noundef %7) #0 {
  %9 = alloca %"class.cv::Size_", align 4
  %10 = alloca ptr, align 8
  %11 = alloca i64, align 8
  %12 = alloca ptr, align 8
  %13 = alloca i64, align 8
  %14 = alloca ptr, align 8
  %15 = alloca i64, align 8
  %16 = alloca ptr, align 8
  %17 = alloca %"class.cv::Size_", align 4
  store i64 %6, ptr %9, align 4
  store ptr %0, ptr %10, align 8
  store i64 %1, ptr %11, align 8
  store ptr %2, ptr %12, align 8
  store i64 %3, ptr %13, align 8
  store ptr %4, ptr %14, align 8
  store i64 %5, ptr %15, align 8
  store ptr %7, ptr %16, align 8
  %18 = load ptr, ptr %10, align 8
  %19 = load i64, ptr %11, align 8
  %20 = load ptr, ptr %12, align 8
  %21 = load i64, ptr %13, align 8
  %22 = load ptr, ptr %14, align 8
  %23 = load i64, ptr %15, align 8
  call void @llvm.memcpy.p0.p0.i64(ptr align 4 %17, ptr align 4 %9, i64 8, i1 false)
  %24 = load i64, ptr %17, align 4
  call void @_ZN2cvL9copyMask_INS_3VecIhLi3EEEEEvPKhmS4_mPhmNS_5Size_IiEE(ptr noundef %18, i64 noundef %19, ptr noundef %20, i64 noundef %21, ptr noundef %22, i64 noundef %23, i64 %24)
  ret void
}